; Function Attrs: mustprogress nofree norecurse nosync nounwind willreturn memory(write, argmem: readwrite, inaccessiblemem: none) uwtable
define noundef zeroext i1 @pkpy_push_none(ptr noundef captures(none) %0) local_unnamed_addr #13 {
  %2 = getelementptr inbounds nuw i8, ptr %0, i64 264488
  %3 = load ptr, ptr %2, align 8
  %.not = icmp eq ptr %3, null
  br i1 %.not, label %4, label %10

4:                                                ; preds = %1
  %5 = getelementptr inbounds nuw i8, ptr %0, i64 264520
  %6 = load ptr, ptr %5, align 8
  %7 = getelementptr inbounds nuw i8, ptr %0, i64 264296
  %8 = load ptr, ptr %7, align 8
  %9 = getelementptr inbounds nuw i8, ptr %8, i64 8
  store ptr %9, ptr %7, align 8
  store ptr %6, ptr %8, align 8
  br label %10

10:                                               ; preds = %1, %4
  ret i1 %.not
}